target datalayout = "e-m:e-p270:32:32-p271:32:32-p272:64:64-i64:64-i128:128-f80:128-n8:16:32:64-S128"
target triple = "x86_64-pc-linux-gnu"

%struct.expert_field = type { i32, i32 }
%struct._packet_info = type { ptr, ptr, i32, i32, %struct.nstime_t, %struct.nstime_t, %struct.nstime_t, i8, ptr, ptr, ptr, ptr, %struct._address, %struct._address, %struct._address, %struct._address, %struct._address, %struct._address, i32, ptr, i8, [3 x i8], %struct.anon, i32, i32, i32, i32, ptr, i8, ptr, ptr, i16, i16, i32, i32, i16, i32, i32, ptr, ptr, ptr, i8, i8, i16, i16, i16, i32, i16, i16, ptr, ptr, ptr, ptr, ptr, i32, i32 }
%struct.nstime_t = type { i64, i32 }
%struct._address = type { i32, i32, ptr, ptr }
%struct.anon = type { i8, [3 x i8] }
%struct.media_content_info_t = type { i32, ptr, ptr, ptr }

@proto_cose = internal global i32 0, align 4
@table_cose_media_subtype = internal global ptr null, align 8
@handle_cose_msg_tagged = internal global ptr null, align 8
@ei_invalid_tag = internal global %struct.expert_field zeroinitializer, align 4
@.str.233 = private unnamed_addr constant [10 x i8] c"cose-type\00", align 1

; Function Attrs: null_pointer_is_valid sspstrong uwtable
define internal i32 @dissect_cose_media_type(ptr noundef %0, ptr noundef %1, ptr noundef %2, ptr noundef %3) #0 {
  %5 = alloca i32, align 4
  %6 = alloca ptr, align 8
  %7 = alloca ptr, align 8
  %8 = alloca ptr, align 8
  %9 = alloca ptr, align 8
  %10 = alloca ptr, align 8
  %11 = alloca ptr, align 8
  %12 = alloca ptr, align 8
  %13 = alloca i32, align 4
  %14 = alloca i32, align 4
  %15 = alloca ptr, align 8
  store ptr %0, ptr %6, align 8
  store ptr %1, ptr %7, align 8
  store ptr %2, ptr %8, align 8
  store ptr %3, ptr %9, align 8
  call void @llvm.lifetime.start.p0(i64 8, ptr %10) #12
  %16 = load ptr, ptr %9, align 8
  store ptr %16, ptr %10, align 8
  call void @llvm.lifetime.start.p0(i64 8, ptr %11) #12
  store ptr null, ptr %11, align 8
  %17 = load ptr, ptr %10, align 8
  %18 = getelementptr inbounds nuw %struct.media_content_info_t, ptr %17, i32 0, i32 1
  %19 = load ptr, ptr %18, align 8
  %20 = icmp ne ptr %19, null
  br i1 %20, label %21, label %29

21:                                               ; preds = %4
  %22 = load ptr, ptr %7, align 8
  %23 = getelementptr inbounds nuw %struct._packet_info, ptr %22, i32 0, i32 51
  %24 = load ptr, ptr %23, align 8
  %25 = load ptr, ptr %10, align 8
  %26 = getelementptr inbounds nuw %struct.media_content_info_t, ptr %25, i32 0, i32 1
  %27 = load ptr, ptr %26, align 8
  %28 = call ptr @ws_find_media_type_parameter(ptr noundef %24, ptr noundef %27, ptr noundef @.str.233)
  store ptr %28, ptr %11, align 8
  br label %29

29:                                               ; preds = %21, %4
  call void @llvm.lifetime.start.p0(i64 8, ptr %12) #12
  %30 = load ptr, ptr %11, align 8
  %31 = icmp ne ptr %30, null
  br i1 %31, label %32, label %36

32:                                               ; preds = %29
  %33 = load ptr, ptr @table_cose_media_subtype, align 8
  %34 = load ptr, ptr %11, align 8
  %35 = call ptr @dissector_get_string_handle(ptr noundef %33, ptr noundef %34)
  store ptr %35, ptr %12, align 8
  br label %38

36:                                               ; preds = %29
  %37 = load ptr, ptr @handle_cose_msg_tagged, align 8
  store ptr %37, ptr %12, align 8
  br label %38

38:                                               ; preds = %36, %32
  call void @llvm.lifetime.start.p0(i64 4, ptr %13) #12
  %39 = load ptr, ptr %12, align 8
  %40 = load ptr, ptr %6, align 8
  %41 = load ptr, ptr %7, align 8
  %42 = load ptr, ptr %8, align 8
  %43 = call i32 @call_dissector_only(ptr noundef %39, ptr noundef %40, ptr noundef %41, ptr noundef %42, ptr noundef null)
  store i32 %43, ptr %13, align 4
  %44 = load i32, ptr %13, align 4
  %45 = icmp sgt i32 %44, 0
  br i1 %45, label %46, label %48

46:                                               ; preds = %38
  %47 = load i32, ptr %13, align 4
  store i32 %47, ptr %5, align 4
  store i32 1, ptr %14, align 4
  br label %56

48:                                               ; preds = %38
  call void @llvm.lifetime.start.p0(i64 8, ptr %15) #12
  %49 = load ptr, ptr %8, align 8
  %50 = load i32, ptr @proto_cose, align 4
  %51 = load ptr, ptr %6, align 8
  %52 = call ptr @proto_tree_add_item(ptr noundef %49, i32 noundef %50, ptr noundef %51, i32 noundef 0, i32 noundef -1, i32 noundef 0)
  store ptr %52, ptr %15, align 8
  %53 = load ptr, ptr %7, align 8
  %54 = load ptr, ptr %15, align 8
  %55 = call ptr @expert_add_info(ptr noundef %53, ptr noundef %54, ptr noundef @ei_invalid_tag)
  store i32 -1, ptr %5, align 4
  store i32 1, ptr %14, align 4
  call void @llvm.lifetime.end.p0(i64 8, ptr %15) #12
  br label %56

56:                                               ; preds = %48, %46
  call void @llvm.lifetime.end.p0(i64 4, ptr %13) #12
  call void @llvm.lifetime.end.p0(i64 8, ptr %12) #12
  call void @llvm.lifetime.end.p0(i64 8, ptr %11) #12
  call void @llvm.lifetime.end.p0(i64 8, ptr %10) #12
  %57 = load i32, ptr %5, align 4
  ret i32 %57
}