; Function Attrs: null_pointer_is_valid sspstrong uwtable
define internal range(i32 -1, -2147483648) i32 @dissect_cose_media_type(ptr noundef %0, ptr noundef %1, ptr noundef %2, ptr noundef readonly captures(none) %3) #0 {
  %5 = getelementptr inbounds nuw i8, ptr %3, i64 8
  %6 = load ptr, ptr %5, align 8
  %.not = icmp eq ptr %6, null
  br i1 %.not, label %.thread, label %7

7:                                                ; preds = %4
  %8 = getelementptr inbounds nuw i8, ptr %1, i64 408
  %9 = load ptr, ptr %8, align 8
  %10 = tail call ptr @ws_find_media_type_parameter(ptr noundef %9, ptr noundef nonnull %6, ptr noundef nonnull @.str.233)
  %.not20 = icmp eq ptr %10, null
  br i1 %.not20, label %.thread, label %11

11:                                               ; preds = %7
  %12 = load ptr, ptr @table_cose_media_subtype, align 8
  %13 = tail call ptr @dissector_get_string_handle(ptr noundef %12, ptr noundef nonnull %10)
  br label %15

.thread:                                          ; preds = %4, %7
  %14 = load ptr, ptr @handle_cose_msg_tagged, align 8
  br label %15

15:                                               ; preds = %.thread, %11
  %.017 = phi ptr [ %13, %11 ], [ %14, %.thread ]
  %16 = tail call i32 @call_dissector_only(ptr noundef %.017, ptr noundef %0, ptr noundef %1, ptr noundef %2, ptr noundef null)
  %17 = icmp sgt i32 %16, 0
  br i1 %17, label %22, label %18

18:                                               ; preds = %15
  %19 = load i32, ptr @proto_cose, align 4
  %20 = tail call ptr @proto_tree_add_item(ptr noundef %2, i32 noundef %19, ptr noundef %0, i32 noundef 0, i32 noundef -1, i32 noundef 0)
  %21 = tail call ptr @expert_add_info(ptr noundef %1, ptr noundef %20, ptr noundef nonnull @ei_invalid_tag)
  br label %22

22:                                               ; preds = %15, %18
  %.0 = phi i32 [ -1, %18 ], [ %16, %15 ]
  ret i32 %.0
}